Certificate:
    Data:
        Version: 3 (0x2)
        Serial Number: 2 (0x2)
        Signature Algorithm: sha256WithRSAEncryption
        Issuer: O=Test Org, CN=Test Org rauc CA Development
        Validity
            Not Before: Jan  1 00:00:00 1970 GMT
            Not After : Dec 31 23:59:59 9999 GMT
        Subject: O=Test Org, CN=Test Org Development-1
        Subject Public Key Info:
            Public Key Algorithm: rsaEncryption
                Public-Key: (2048 bit)
                Modulus:
                    00:82:9b:21:9e:4b:57:c2:94:2b:37:c0:27:52:ef:
                    b2:c9:6e:12:32:3a:2d:dc:89:4c:d3:47:85:c0:ce:
                    a0:d9:f0:e5:dd:ea:e8:46:f1:eb:dd:ad:43:cd:5d:
                    0c:2e:82:da:19:6f:3b:8e:10:54:1d:a3:38:de:63:
                    c0:d8:54:4f:df:16:90:fd:6e:7e:7f:72:e8:34:3a:
                    8e:ee:98:2f:e0:16:46:7b:90:69:08:e3:b6:88:28:
                    10:80:57:7f:87:fa:4e:42:8a:1a:db:25:1b:86:f8:
                    ec:88:9b:f4:83:62:10:60:d7:1a:d5:a9:16:e0:ae:
                    6e:d9:03:4a:dc:7a:a8:5b:1f:cd:d8:4d:d3:d6:58:
                    69:b1:40:82:4d:e6:8c:22:44:2e:21:77:82:2b:d7:
                    58:98:c9:ec:53:c3:7f:5b:bb:2a:9f:f5:76:f5:e7:
                    8b:e7:25:24:dd:ed:36:d9:8a:47:1b:21:9d:42:d0:
                    2a:a4:34:54:66:aa:8e:72:2e:7f:5b:3f:c7:8e:2b:
                    d1:c9:65:86:ac:50:e2:84:ab:01:d1:f8:ad:77:38:
                    41:75:4a:11:53:4d:6c:a0:41:d9:bc:0c:a5:25:ae:
                    a0:05:ad:f9:9d:87:fa:7c:51:23:6d:44:92:c5:08:
                    1b:f9:17:08:c6:8c:c7:2b:57:3d:d7:5b:b9:82:77:
                    e9:d5
                Exponent: 65537 (0x10001)
        X509v3 extensions:
            X509v3 Subject Key Identifier: 
                61:43:6D:62:0D:08:B9:7A:60:9E:F2:27:3D:70:07:0B:AD:BE:EA:AA
            X509v3 Authority Key Identifier: 
                keyid:48:C0:27:94:DC:C5:32:83:DF:6B:E6:1B:16:22:4D:D0:C1:44:41:74
                DirName:/O=Test Org/CN=Test Org rauc CA Development
                serial:01
            X509v3 Basic Constraints: 
                CA:FALSE
    Signature Algorithm: sha256WithRSAEncryption
    Signature Value:
        65:6f:99:c4:33:d6:f7:66:15:ea:20:73:31:ae:da:2e:5a:e0:
        81:c2:e6:1c:74:32:03:37:c4:63:62:2b:00:fe:1c:7c:ec:1d:
        df:c6:a4:f8:79:c4:f4:95:5a:24:8f:9f:b6:8f:a6:39:f6:db:
        7c:61:fb:51:0b:39:86:f2:5f:0c:cd:32:95:9e:4c:a4:f3:be:
        4d:bb:c0:91:a0:e4:7a:37:41:6f:4e:b1:19:d2:49:04:c2:23:
        1a:1e:1c:08:e8:f2:75:26:65:bd:e0:0a:4c:cc:ef:d0:55:3b:
        78:3d:77:78:c5:fb:5b:1b:a5:22:d4:e8:ca:d9:31:7e:1c:9d:
        21:e1:97:92:61:3e:82:c6:19:c1:bd:e1:84:45:6c:f8:a6:e7:
        4c:33:9c:de:e1:4b:49:b7:61:02:7f:e2:98:7a:62:c8:4e:f0:
        52:ba:cd:28:32:d1:48:8a:2b:f7:8d:82:d9:d2:3d:80:45:e9:
        f1:fd:7a:24:94:5d:6f:5f:01:19:14:0f:9f:89:cd:ea:60:77:
        37:b8:43:25:8b:66:68:b5:33:47:c9:ad:ae:0f:cb:34:2c:2e:
        af:a7:86:d4:72:fa:fe:a7:0f:5f:94:6c:13:cd:e5:da:33:84:
        9e:db:b1:c8:f1:37:22:fd:a9:19:1b:1e:80:9d:06:b3:53:98:
        58:2d:1e:60
-----BEGIN CERTIFICATE-----
MIIDfTCCAmWgAwIBAgIBAjANBgkqhkiG9w0BAQsFADA6MREwDwYDVQQKDAhUZXN0
IE9yZzElMCMGA1UEAwwcVGVzdCBPcmcgcmF1YyBDQSBEZXZlbG9wbWVudDAgFw03
MDAxMDEwMDAwMDBaGA85OTk5MTIzMTIzNTk1OVowNDERMA8GA1UECgwIVGVzdCBP
cmcxHzAdBgNVBAMMFlRlc3QgT3JnIERldmVsb3BtZW50LTEwggEiMA0GCSqGSIb3
DQEBAQUAA4IBDwAwggEKAoIBAQCCmyGeS1fClCs3wCdS77LJbhIyOi3ciUzTR4XA
zqDZ8OXd6uhG8evdrUPNXQwugtoZbzuOEFQdozjeY8DYVE/fFpD9bn5/cug0Oo7u
mC/gFkZ7kGkI47aIKBCAV3+H+k5CihrbJRuG+OyIm/SDYhBg1xrVqRbgrm7ZA0rc
eqhbH83YTdPWWGmxQIJN5owiRC4hd4Ir11iYyexTw39buyqf9Xb154vnJSTd7TbZ
ikcbIZ1C0CqkNFRmqo5yLn9bP8eOK9HJZYasUOKEqwHR+K13OEF1ShFTTWygQdm8
DKUlrqAFrfmdh/p8USNtRJLFCBv5FwjGjMcrVz3XW7mCd+nVAgMBAAGjgZEwgY4w
HQYDVR0OBBYEFGFDbWINCLl6YJ7yJz1wBwutvuqqMGIGA1UdIwRbMFmAFEjAJ5Tc
xTKD32vmGxYiTdDBREF0oT6kPDA6MREwDwYDVQQKDAhUZXN0IE9yZzElMCMGA1UE
AwwcVGVzdCBPcmcgcmF1YyBDQSBEZXZlbG9wbWVudIIBATAJBgNVHRMEAjAAMA0G
CSqGSIb3DQEBCwUAA4IBAQBlb5nEM9b3ZhXqIHMxrtouWuCBwuYcdDIDN8RjYisA
/hx87B3fxqT4ecT0lVokj5+2j6Y59tt8YftRCzmG8l8MzTKVnkyk875Nu8CRoOR6
N0FvTrEZ0kkEwiMaHhwI6PJ1JmW94ApMzO/QVTt4PXd4xftbG6Ui1OjK2TF+HJ0h
4ZeSYT6CxhnBveGERWz4pudMM5ze4UtJt2ECf+KYemLITvBSus0oMtFIiiv3jYLZ
0j2ARenx/XoklF1vXwEZFA+fic3qYHc3uEMli2ZotTNHya2uD8s0LC6vp4bUcvr+
pw9flGwTzeXaM4Se27HI8Tci/akZGx6AnQazU5hYLR5g
-----END CERTIFICATE-----
