Certificate:
    Data:
        Version: 3 (0x2)
        Serial Number: 1 (0x1)
        Signature Algorithm: sha256WithRSAEncryption
        Issuer: O=Test Org, CN=Test Org rauc CA Development
        Validity
            Not Before: Jan  1 00:00:00 1970 GMT
            Not After : Dec 31 23:59:59 9999 GMT
        Subject: O=Test Org, CN=Test Org rauc CA Development
        Subject Public Key Info:
            Public Key Algorithm: rsaEncryption
                Public-Key: (2048 bit)
                Modulus:
                    00:bc:89:f8:e6:32:a7:6b:48:f7:ce:eb:50:8e:43:
                    11:b5:f1:90:a6:37:60:5e:0f:7d:e2:0c:14:61:aa:
                    d9:46:f3:c4:d1:7f:31:f8:ce:ea:e3:f7:9a:ae:1c:
                    9a:51:2f:cb:70:cf:19:e0:c2:55:24:1c:0a:d9:6a:
                    3b:95:b5:eb:b6:9e:4e:13:c5:bc:32:ab:80:cc:0c:
                    22:6a:3e:1e:f6:5f:c1:f8:a3:9b:e0:55:6d:67:c2:
                    c7:71:28:09:39:66:39:e6:06:21:4f:b9:d3:9e:e7:
                    57:12:a2:d9:39:25:e6:b3:03:a7:a9:d7:c2:1c:d4:
                    1f:68:75:8b:9d:91:f1:53:cb:e9:d7:70:7a:71:a8:
                    04:92:dd:fd:61:26:84:ff:35:4e:0a:21:3a:fb:cc:
                    cb:12:21:f1:c9:a0:60:4a:3e:69:ee:31:0e:6a:56:
                    89:c5:8c:82:02:d6:cc:35:dc:01:7d:61:df:96:6c:
                    b5:6f:54:a0:48:93:b7:0a:e0:7e:9f:5d:fd:af:8e:
                    c3:4e:79:87:d0:bc:34:e9:9e:16:8d:f1:bd:5e:ea:
                    99:26:af:97:5f:d5:5e:c1:49:0e:d1:d9:19:8d:4a:
                    9f:ef:0e:34:2c:e8:2e:f6:6e:05:d0:20:2a:29:aa:
                    cc:00:5c:49:58:9f:df:2a:8e:f5:ba:de:58:b8:34:
                    59:05
                Exponent: 65537 (0x10001)
        X509v3 extensions:
            X509v3 Subject Key Identifier: 
                48:C0:27:94:DC:C5:32:83:DF:6B:E6:1B:16:22:4D:D0:C1:44:41:74
            X509v3 Authority Key Identifier: 
                keyid:48:C0:27:94:DC:C5:32:83:DF:6B:E6:1B:16:22:4D:D0:C1:44:41:74
                DirName:/O=Test Org/CN=Test Org rauc CA Development
                serial:01
            X509v3 Basic Constraints: 
                CA:TRUE
    Signature Algorithm: sha256WithRSAEncryption
    Signature Value:
        ad:31:ce:55:69:72:fd:f0:9c:7b:c6:e2:57:f6:27:aa:c1:38:
        f0:e5:b5:fc:a8:13:d9:e6:c9:66:8a:a7:7e:5c:4c:dd:bd:41:
        e5:d7:f2:2e:1d:04:ee:03:d5:40:af:7d:25:52:6f:b6:05:f4:
        17:1f:d1:7c:c4:e0:5e:42:00:53:1c:0b:68:88:9f:3d:02:ac:
        88:39:b5:ad:fe:0e:67:8a:93:46:1c:33:cf:99:0e:f6:a7:a8:
        4a:31:93:e7:31:99:6b:0e:86:58:f3:61:38:53:ee:89:d6:25:
        7a:de:30:86:23:7b:a8:f8:b5:b8:d2:4c:37:29:eb:82:d8:7e:
        1a:78:2d:e8:e0:83:ed:26:9e:de:3d:ce:a9:28:18:17:8f:7a:
        12:97:60:24:a5:2f:16:b4:d0:21:a7:a6:28:26:5d:0e:07:0f:
        b0:2d:91:a4:9a:06:67:07:33:66:ce:91:fd:08:f2:eb:dd:91:
        d8:d3:94:c2:b0:39:d9:99:9c:5b:86:21:d4:99:03:d8:7c:cf:
        69:da:6a:6c:ff:2b:26:48:41:bc:fe:ea:fe:ed:85:ba:c2:89:
        e0:2d:1d:dc:15:9d:6a:bf:4b:fb:e0:6a:d7:df:96:d3:5f:03:
        4e:21:03:15:a7:c2:d5:b8:ba:c5:e2:aa:d0:7b:b0:23:9e:0e:
        58:f8:4d:39
-----BEGIN CERTIFICATE-----
MIIDhjCCAm6gAwIBAgIBATANBgkqhkiG9w0BAQsFADA6MREwDwYDVQQKDAhUZXN0
IE9yZzElMCMGA1UEAwwcVGVzdCBPcmcgcmF1YyBDQSBEZXZlbG9wbWVudDAgFw03
MDAxMDEwMDAwMDBaGA85OTk5MTIzMTIzNTk1OVowOjERMA8GA1UECgwIVGVzdCBP
cmcxJTAjBgNVBAMMHFRlc3QgT3JnIHJhdWMgQ0EgRGV2ZWxvcG1lbnQwggEiMA0G
CSqGSIb3DQEBAQUAA4IBDwAwggEKAoIBAQC8ifjmMqdrSPfO61COQxG18ZCmN2Be
D33iDBRhqtlG88TRfzH4zurj95quHJpRL8twzxngwlUkHArZajuVteu2nk4Txbwy
q4DMDCJqPh72X8H4o5vgVW1nwsdxKAk5ZjnmBiFPudOe51cSotk5JeazA6ep18Ic
1B9odYudkfFTy+nXcHpxqASS3f1hJoT/NU4KITr7zMsSIfHJoGBKPmnuMQ5qVonF
jIIC1sw13AF9Yd+WbLVvVKBIk7cK4H6fXf2vjsNOeYfQvDTpnhaN8b1e6pkmr5df
1V7BSQ7R2RmNSp/vDjQs6C72bgXQICopqswAXElYn98qjvW63li4NFkFAgMBAAGj
gZQwgZEwHQYDVR0OBBYEFEjAJ5TcxTKD32vmGxYiTdDBREF0MGIGA1UdIwRbMFmA
FEjAJ5TcxTKD32vmGxYiTdDBREF0oT6kPDA6MREwDwYDVQQKDAhUZXN0IE9yZzEl
MCMGA1UEAwwcVGVzdCBPcmcgcmF1YyBDQSBEZXZlbG9wbWVudIIBATAMBgNVHRME
BTADAQH/MA0GCSqGSIb3DQEBCwUAA4IBAQCtMc5VaXL98Jx7xuJX9ieqwTjw5bX8
qBPZ5slmiqd+XEzdvUHl1/IuHQTuA9VAr30lUm+2BfQXH9F8xOBeQgBTHAtoiJ89
AqyIObWt/g5nipNGHDPPmQ72p6hKMZPnMZlrDoZY82E4U+6J1iV63jCGI3uo+LW4
0kw3KeuC2H4aeC3o4IPtJp7ePc6pKBgXj3oSl2AkpS8WtNAhp6YoJl0OBw+wLZGk
mgZnBzNmzpH9CPLr3ZHY05TCsDnZmZxbhiHUmQPYfM9p2mps/ysmSEG8/ur+7YW6
wongLR3cFZ1qv0v74GrX35bTXwNOIQMVp8LVuLrF4qrQe7Ajng5Y+E05
-----END CERTIFICATE-----
